; Function Attrs: mustprogress nounwind uwtable
define noundef zeroext i1 @_ZN7mitsuba10filesystem6renameERKNS0_4pathES3_(ptr nocapture noundef nonnull readonly align 8 dereferenceable(25) %0, ptr nocapture noundef nonnull readonly align 8 dereferenceable(25) %1) local_unnamed_addr #5 personality ptr @__gxx_personality_v0 {
  %3 = alloca %"class.std::__1::basic_string", align 8
  %4 = alloca %"class.std::__1::basic_string", align 8
  invoke void @_ZNK7mitsuba10filesystem4path3strEv(ptr dead_on_unwind nonnull writable sret(%"class.std::__1::basic_string") align 8 %3, ptr noundef nonnull align 8 dereferenceable(25) %0)
          to label %_ZNK7mitsuba10filesystem4path6nativeEv.exit unwind label %5

5:                                                ; preds = %2
  %6 = landingpad { ptr, i32 }
          catch ptr null
  %7 = extractvalue { ptr, i32 } %6, 0
  call void @__clang_call_terminate(ptr %7) #19
  unreachable

_ZNK7mitsuba10filesystem4path6nativeEv.exit:      ; preds = %2
  %8 = load i8, ptr %3, align 8
  %9 = getelementptr inbounds i8, ptr %3, i64 16
  %10 = load ptr, ptr %9, align 8
  invoke void @_ZNK7mitsuba10filesystem4path3strEv(ptr dead_on_unwind nonnull writable sret(%"class.std::__1::basic_string") align 8 %4, ptr noundef nonnull align 8 dereferenceable(25) %1)
          to label %_ZNK7mitsuba10filesystem4path6nativeEv.exit2 unwind label %11

11:                                               ; preds = %_ZNK7mitsuba10filesystem4path6nativeEv.exit
  %12 = landingpad { ptr, i32 }
          catch ptr null
  %13 = extractvalue { ptr, i32 } %12, 0
  call void @__clang_call_terminate(ptr %13) #19
  unreachable

_ZNK7mitsuba10filesystem4path6nativeEv.exit2:     ; preds = %_ZNK7mitsuba10filesystem4path6nativeEv.exit
  %14 = and i8 %8, 1
  %.not.i.i.i = icmp eq i8 %14, 0
  %15 = getelementptr inbounds i8, ptr %3, i64 1
  %16 = select i1 %.not.i.i.i, ptr %15, ptr %10
  %17 = load i8, ptr %4, align 8
  %18 = and i8 %17, 1
  %.not.i.i.i3 = icmp eq i8 %18, 0
  %19 = getelementptr inbounds i8, ptr %4, i64 16
  %20 = load ptr, ptr %19, align 8
  %21 = getelementptr inbounds i8, ptr %4, i64 1
  %22 = select i1 %.not.i.i.i3, ptr %21, ptr %20
  %23 = call i32 @rename(ptr noundef %16, ptr noundef %22) #16
  %24 = icmp eq i32 %23, 0
  call void @_ZNSt3__112basic_stringIcNS_11char_traitsIcEENS_9allocatorIcEEED1Ev(ptr noundef nonnull align 8 dereferenceable(24) %4) #16
  call void @_ZNSt3__112basic_stringIcNS_11char_traitsIcEENS_9allocatorIcEEED1Ev(ptr noundef nonnull align 8 dereferenceable(24) %3) #16
  ret i1 %24
}